target datalayout = "e-m:e-p270:32:32-p271:32:32-p272:64:64-i64:64-f80:128-n8:16:32:64-S128"
target triple = "x86_64-pc-linux-gnu"

@.str = private unnamed_addr constant [6 x i8] c"%d %d\00", align 1
@.str.1 = private unnamed_addr constant [4 x i8] c"%d \00", align 1
@.str.2 = private unnamed_addr constant [4 x i8] c"%d\0A\00", align 1

; Function Attrs: noinline nounwind uwtable
define dso_local i32 @main() #0 {
  %1 = alloca i32, align 4
  %2 = alloca i32, align 4
  %3 = alloca i32, align 4
  %4 = alloca i32, align 4
  %5 = alloca i32, align 4
  %6 = alloca i32, align 4
  %7 = alloca [11 x [11 x i32]], align 16
  %8 = alloca [11 x [11 x i32]], align 16
  store i32 0, i32* %1, align 4
  %9 = bitcast [11 x [11 x i32]]* %7 to i8*
  call void @llvm.memset.p0i8.i64(i8* align 16 %9, i8 0, i64 484, i1 false)
  %10 = call i32 (i8*, ...) @__isoc99_scanf(i8* getelementptr inbounds ([6 x i8], [6 x i8]* @.str, i64 0, i64 0), i32* %2, i32* %3)
  %11 = load i32, i32* %2, align 4
  %12 = getelementptr inbounds [11 x [11 x i32]], [11 x [11 x i32]]* %7, i64 0, i64 5
  %13 = getelementptr inbounds [11 x i32], [11 x i32]* %12, i64 0, i64 5
  store i32 %11, i32* %13, align 4
  store i32 0, i32* %4, align 4
  br label %14

14:                                               ; preds = %154, %0
  %15 = load i32, i32* %4, align 4
  %16 = load i32, i32* %3, align 4
  %17 = icmp slt i32 %15, %16
  br i1 %17, label %18, label %157

18:                                               ; preds = %14
  store i32 0, i32* %5, align 4
  br label %19

19:                                               ; preds = %44, %18
  %20 = load i32, i32* %5, align 4
  %21 = icmp slt i32 %20, 11
  br i1 %21, label %22, label %47

22:                                               ; preds = %19
  store i32 0, i32* %6, align 4
  br label %23

23:                                               ; preds = %40, %22
  %24 = load i32, i32* %6, align 4
  %25 = icmp slt i32 %24, 11
  br i1 %25, label %26, label %43

26:                                               ; preds = %23
  %27 = load i32, i32* %5, align 4
  %28 = sext i32 %27 to i64
  %29 = getelementptr inbounds [11 x [11 x i32]], [11 x [11 x i32]]* %7, i64 0, i64 %28
  %30 = load i32, i32* %6, align 4
  %31 = sext i32 %30 to i64
  %32 = getelementptr inbounds [11 x i32], [11 x i32]* %29, i64 0, i64 %31
  %33 = load i32, i32* %32, align 4
  %34 = load i32, i32* %5, align 4
  %35 = sext i32 %34 to i64
  %36 = getelementptr inbounds [11 x [11 x i32]], [11 x [11 x i32]]* %8, i64 0, i64 %35
  %37 = load i32, i32* %6, align 4
  %38 = sext i32 %37 to i64
  %39 = getelementptr inbounds [11 x i32], [11 x i32]* %36, i64 0, i64 %38
  store i32 %33, i32* %39, align 4
  br label %40

40:                                               ; preds = %26
  %41 = load i32, i32* %6, align 4
  %42 = add nsw i32 %41, 1
  store i32 %42, i32* %6, align 4
  br label %23

43:                                               ; preds = %23
  br label %44

44:                                               ; preds = %43
  %45 = load i32, i32* %5, align 4
  %46 = add nsw i32 %45, 1
  store i32 %46, i32* %5, align 4
  br label %19

47:                                               ; preds = %19
  store i32 1, i32* %5, align 4
  br label %48

48:                                               ; preds = %150, %47
  %49 = load i32, i32* %5, align 4
  %50 = icmp slt i32 %49, 10
  br i1 %50, label %51, label %153

51:                                               ; preds = %48
  store i32 1, i32* %6, align 4
  br label %52

52:                                               ; preds = %146, %51
  %53 = load i32, i32* %6, align 4
  %54 = icmp slt i32 %53, 10
  br i1 %54, label %55, label %149

55:                                               ; preds = %52
  %56 = load i32, i32* %5, align 4
  %57 = sext i32 %56 to i64
  %58 = getelementptr inbounds [11 x [11 x i32]], [11 x [11 x i32]]* %8, i64 0, i64 %57
  %59 = load i32, i32* %6, align 4
  %60 = sext i32 %59 to i64
  %61 = getelementptr inbounds [11 x i32], [11 x i32]* %58, i64 0, i64 %60
  %62 = load i32, i32* %61, align 4
  %63 = mul nsw i32 2, %62
  %64 = load i32, i32* %5, align 4
  %65 = sub nsw i32 %64, 1
  %66 = sext i32 %65 to i64
  %67 = getelementptr inbounds [11 x [11 x i32]], [11 x [11 x i32]]* %8, i64 0, i64 %66
  %68 = load i32, i32* %6, align 4
  %69 = sext i32 %68 to i64
  %70 = getelementptr inbounds [11 x i32], [11 x i32]* %67, i64 0, i64 %69
  %71 = load i32, i32* %70, align 4
  %72 = add nsw i32 %63, %71
  %73 = load i32, i32* %5, align 4
  %74 = sub nsw i32 %73, 1
  %75 = sext i32 %74 to i64
  %76 = getelementptr inbounds [11 x [11 x i32]], [11 x [11 x i32]]* %8, i64 0, i64 %75
  %77 = load i32, i32* %6, align 4
  %78 = sub nsw i32 %77, 1
  %79 = sext i32 %78 to i64
  %80 = getelementptr inbounds [11 x i32], [11 x i32]* %76, i64 0, i64 %79
  %81 = load i32, i32* %80, align 4
  %82 = add nsw i32 %72, %81
  %83 = load i32, i32* %5, align 4
  %84 = sext i32 %83 to i64
  %85 = getelementptr inbounds [11 x [11 x i32]], [11 x [11 x i32]]* %8, i64 0, i64 %84
  %86 = load i32, i32* %6, align 4
  %87 = sub nsw i32 %86, 1
  %88 = sext i32 %87 to i64
  %89 = getelementptr inbounds [11 x i32], [11 x i32]* %85, i64 0, i64 %88
  %90 = load i32, i32* %89, align 4
  %91 = add nsw i32 %82, %90
  %92 = load i32, i32* %5, align 4
  %93 = add nsw i32 %92, 1
  %94 = sext i32 %93 to i64
  %95 = getelementptr inbounds [11 x [11 x i32]], [11 x [11 x i32]]* %8, i64 0, i64 %94
  %96 = load i32, i32* %6, align 4
  %97 = sext i32 %96 to i64
  %98 = getelementptr inbounds [11 x i32], [11 x i32]* %95, i64 0, i64 %97
  %99 = load i32, i32* %98, align 4
  %100 = add nsw i32 %91, %99
  %101 = load i32, i32* %5, align 4
  %102 = sext i32 %101 to i64
  %103 = getelementptr inbounds [11 x [11 x i32]], [11 x [11 x i32]]* %8, i64 0, i64 %102
  %104 = load i32, i32* %6, align 4
  %105 = add nsw i32 %104, 1
  %106 = sext i32 %105 to i64
  %107 = getelementptr inbounds [11 x i32], [11 x i32]* %103, i64 0, i64 %106
  %108 = load i32, i32* %107, align 4
  %109 = add nsw i32 %100, %108
  %110 = load i32, i32* %5, align 4
  %111 = add nsw i32 %110, 1
  %112 = sext i32 %111 to i64
  %113 = getelementptr inbounds [11 x [11 x i32]], [11 x [11 x i32]]* %8, i64 0, i64 %112
  %114 = load i32, i32* %6, align 4
  %115 = add nsw i32 %114, 1
  %116 = sext i32 %115 to i64
  %117 = getelementptr inbounds [11 x i32], [11 x i32]* %113, i64 0, i64 %116
  %118 = load i32, i32* %117, align 4
  %119 = add nsw i32 %109, %118
  %120 = load i32, i32* %5, align 4
  %121 = add nsw i32 %120, 1
  %122 = sext i32 %121 to i64
  %123 = getelementptr inbounds [11 x [11 x i32]], [11 x [11 x i32]]* %8, i64 0, i64 %122
  %124 = load i32, i32* %6, align 4
  %125 = sub nsw i32 %124, 1
  %126 = sext i32 %125 to i64
  %127 = getelementptr inbounds [11 x i32], [11 x i32]* %123, i64 0, i64 %126
  %128 = load i32, i32* %127, align 4
  %129 = add nsw i32 %119, %128
  %130 = load i32, i32* %5, align 4
  %131 = sub nsw i32 %130, 1
  %132 = sext i32 %131 to i64
  %133 = getelementptr inbounds [11 x [11 x i32]], [11 x [11 x i32]]* %8, i64 0, i64 %132
  %134 = load i32, i32* %6, align 4
  %135 = add nsw i32 %134, 1
  %136 = sext i32 %135 to i64
  %137 = getelementptr inbounds [11 x i32], [11 x i32]* %133, i64 0, i64 %136
  %138 = load i32, i32* %137, align 4
  %139 = add nsw i32 %129, %138
  %140 = load i32, i32* %5, align 4
  %141 = sext i32 %140 to i64
  %142 = getelementptr inbounds [11 x [11 x i32]], [11 x [11 x i32]]* %7, i64 0, i64 %141
  %143 = load i32, i32* %6, align 4
  %144 = sext i32 %143 to i64
  %145 = getelementptr inbounds [11 x i32], [11 x i32]* %142, i64 0, i64 %144
  store i32 %139, i32* %145, align 4
  br label %146

146:                                              ; preds = %55
  %147 = load i32, i32* %6, align 4
  %148 = add nsw i32 %147, 1
  store i32 %148, i32* %6, align 4
  br label %52

149:                                              ; preds = %52
  br label %150

150:                                              ; preds = %149
  %151 = load i32, i32* %5, align 4
  %152 = add nsw i32 %151, 1
  store i32 %152, i32* %5, align 4
  br label %48

153:                                              ; preds = %48
  br label %154

154:                                              ; preds = %153
  %155 = load i32, i32* %4, align 4
  %156 = add nsw i32 %155, 1
  store i32 %156, i32* %4, align 4
  br label %14

157:                                              ; preds = %14
  store i32 1, i32* %5, align 4
  br label %158

158:                                              ; preds = %194, %157
  %159 = load i32, i32* %5, align 4
  %160 = icmp slt i32 %159, 10
  br i1 %160, label %161, label %197

161:                                              ; preds = %158
  store i32 1, i32* %6, align 4
  br label %162

162:                                              ; preds = %190, %161
  %163 = load i32, i32* %6, align 4
  %164 = icmp slt i32 %163, 10
  br i1 %164, label %165, label %193

165:                                              ; preds = %162
  %166 = load i32, i32* %6, align 4
  %167 = icmp slt i32 %166, 9
  br i1 %167, label %168, label %177

168:                                              ; preds = %165
  %169 = load i32, i32* %5, align 4
  %170 = sext i32 %169 to i64
  %171 = getelementptr inbounds [11 x [11 x i32]], [11 x [11 x i32]]* %7, i64 0, i64 %170
  %172 = load i32, i32* %6, align 4
  %173 = sext i32 %172 to i64
  %174 = getelementptr inbounds [11 x i32], [11 x i32]* %171, i64 0, i64 %173
  %175 = load i32, i32* %174, align 4
  %176 = call i32 (i8*, ...) @printf(i8* getelementptr inbounds ([4 x i8], [4 x i8]* @.str.1, i64 0, i64 0), i32 %175)
  br label %177

177:                                              ; preds = %168, %165
  %178 = load i32, i32* %6, align 4
  %179 = icmp eq i32 %178, 9
  br i1 %179, label %180, label %189

180:                                              ; preds = %177
  %181 = load i32, i32* %5, align 4
  %182 = sext i32 %181 to i64
  %183 = getelementptr inbounds [11 x [11 x i32]], [11 x [11 x i32]]* %7, i64 0, i64 %182
  %184 = load i32, i32* %6, align 4
  %185 = sext i32 %184 to i64
  %186 = getelementptr inbounds [11 x i32], [11 x i32]* %183, i64 0, i64 %185
  %187 = load i32, i32* %186, align 4
  %188 = call i32 (i8*, ...) @printf(i8* getelementptr inbounds ([4 x i8], [4 x i8]* @.str.2, i64 0, i64 0), i32 %187)
  br label %189

189:                                              ; preds = %180, %177
  br label %190

190:                                              ; preds = %189
  %191 = load i32, i32* %6, align 4
  %192 = add nsw i32 %191, 1
  store i32 %192, i32* %6, align 4
  br label %162

193:                                              ; preds = %162
  br label %194

194:                                              ; preds = %193
  %195 = load i32, i32* %5, align 4
  %196 = add nsw i32 %195, 1
  store i32 %196, i32* %5, align 4
  br label %158

197:                                              ; preds = %158
  %198 = load i32, i32* %1, align 4
  ret i32 %198
}