; Function Attrs: nofree nounwind sspstrong uwtable
define dso_local i32 @main() local_unnamed_addr #0 {
  %1 = alloca i32, align 4
  %2 = alloca i32, align 4
  %3 = alloca [11 x [11 x i32]], align 16
  %4 = bitcast [11 x [11 x i32]]* %3 to i8*
  %5 = alloca [11 x [11 x i32]], align 16
  %6 = bitcast [11 x [11 x i32]]* %5 to i8*
  %7 = bitcast i32* %1 to i8*
  call void @llvm.lifetime.start.p0i8(i64 4, i8* nonnull %7) #5
  %8 = bitcast i32* %2 to i8*
  call void @llvm.lifetime.start.p0i8(i64 4, i8* nonnull %8) #5
  call void @llvm.lifetime.start.p0i8(i64 484, i8* nonnull %4) #5
  call void @llvm.memset.p0i8.i64(i8* noundef nonnull align 16 dereferenceable(484) %4, i8 0, i64 484, i1 false)
  call void @llvm.lifetime.start.p0i8(i64 484, i8* nonnull %6) #5
  %9 = call i32 (i8*, ...) @__isoc99_scanf(i8* getelementptr inbounds ([6 x i8], [6 x i8]* @.str, i64 0, i64 0), i32* nonnull %1, i32* nonnull %2)
  %10 = load i32, i32* %1, align 4, !tbaa !5
  %11 = getelementptr inbounds [11 x [11 x i32]], [11 x [11 x i32]]* %3, i64 0, i64 5, i64 5
  store i32 %10, i32* %11, align 16, !tbaa !5
  %12 = load i32, i32* %2, align 4, !tbaa !5
  %13 = icmp sgt i32 %12, 0
  br i1 %13, label %15, label %14

14:                                               ; preds = %189, %0
  br label %193

15:                                               ; preds = %0
  %16 = getelementptr inbounds [11 x [11 x i32]], [11 x [11 x i32]]* %5, i64 0, i64 1, i64 5
  %17 = getelementptr inbounds [11 x [11 x i32]], [11 x [11 x i32]]* %5, i64 0, i64 1, i64 6
  %18 = getelementptr inbounds [11 x [11 x i32]], [11 x [11 x i32]]* %5, i64 0, i64 0, i64 6
  %19 = getelementptr inbounds [11 x [11 x i32]], [11 x [11 x i32]]* %5, i64 0, i64 0, i64 5
  br label %20

20:                                               ; preds = %15, %189
  %21 = phi i32 [ %190, %189 ], [ 0, %15 ]
  call void @llvm.memcpy.p0i8.p0i8.i64(i8* noundef nonnull align 16 dereferenceable(484) %6, i8* noundef nonnull align 16 dereferenceable(484) %4, i64 484, i1 false)
  %22 = load i32, i32* %16, align 16, !tbaa !5
  %23 = load i32, i32* %17, align 4, !tbaa !5
  %24 = load i32, i32* %18, align 8, !tbaa !5
  %25 = load i32, i32* %19, align 4, !tbaa !5
  br label %26

26:                                               ; preds = %20, %26
  %27 = phi i32 [ %25, %20 ], [ %126, %26 ]
  %28 = phi i32 [ %24, %20 ], [ %121, %26 ]
  %29 = phi i32 [ %23, %20 ], [ %115, %26 ]
  %30 = phi i32 [ %22, %20 ], [ %102, %26 ]
  %31 = phi i64 [ 1, %20 ], [ %33, %26 ]
  %32 = add nsw i64 %31, -1
  %33 = add nuw nsw i64 %31, 1
  %34 = getelementptr inbounds [11 x [11 x i32]], [11 x [11 x i32]]* %5, i64 0, i64 %31, i64 1
  %35 = load i32, i32* %34, align 4, !tbaa !5
  %36 = shl nsw i32 %35, 1
  %37 = getelementptr inbounds [11 x [11 x i32]], [11 x [11 x i32]]* %5, i64 0, i64 %32, i64 1
  %38 = load i32, i32* %37, align 4, !tbaa !5
  %39 = add nsw i32 %36, %38
  %40 = getelementptr inbounds [11 x [11 x i32]], [11 x [11 x i32]]* %5, i64 0, i64 %32, i64 0
  %41 = load i32, i32* %40, align 4, !tbaa !5
  %42 = add nsw i32 %39, %41
  %43 = getelementptr inbounds [11 x [11 x i32]], [11 x [11 x i32]]* %5, i64 0, i64 %31, i64 0
  %44 = load i32, i32* %43, align 4, !tbaa !5
  %45 = add nsw i32 %42, %44
  %46 = getelementptr inbounds [11 x [11 x i32]], [11 x [11 x i32]]* %5, i64 0, i64 %33, i64 1
  %47 = load i32, i32* %46, align 4, !tbaa !5
  %48 = add nsw i32 %45, %47
  %49 = getelementptr inbounds [11 x [11 x i32]], [11 x [11 x i32]]* %5, i64 0, i64 %31, i64 2
  %50 = load i32, i32* %49, align 4, !tbaa !5
  %51 = add nsw i32 %48, %50
  %52 = getelementptr inbounds [11 x [11 x i32]], [11 x [11 x i32]]* %5, i64 0, i64 %33, i64 2
  %53 = load i32, i32* %52, align 4, !tbaa !5
  %54 = add nsw i32 %51, %53
  %55 = getelementptr inbounds [11 x [11 x i32]], [11 x [11 x i32]]* %5, i64 0, i64 %33, i64 0
  %56 = load i32, i32* %55, align 4, !tbaa !5
  %57 = add nsw i32 %54, %56
  %58 = getelementptr inbounds [11 x [11 x i32]], [11 x [11 x i32]]* %5, i64 0, i64 %32, i64 2
  %59 = load i32, i32* %58, align 4, !tbaa !5
  %60 = add nsw i32 %57, %59
  %61 = getelementptr inbounds [11 x [11 x i32]], [11 x [11 x i32]]* %3, i64 0, i64 %31, i64 1
  store i32 %60, i32* %61, align 4, !tbaa !5
  %62 = shl nsw i32 %50, 1
  %63 = add nsw i32 %62, %59
  %64 = add nsw i32 %63, %38
  %65 = add nsw i32 %64, %35
  %66 = add nsw i32 %65, %53
  %67 = getelementptr inbounds [11 x [11 x i32]], [11 x [11 x i32]]* %5, i64 0, i64 %31, i64 3
  %68 = load i32, i32* %67, align 4, !tbaa !5
  %69 = add nsw i32 %66, %68
  %70 = getelementptr inbounds [11 x [11 x i32]], [11 x [11 x i32]]* %5, i64 0, i64 %33, i64 3
  %71 = load i32, i32* %70, align 4, !tbaa !5
  %72 = add nsw i32 %69, %71
  %73 = add nsw i32 %72, %47
  %74 = getelementptr inbounds [11 x [11 x i32]], [11 x [11 x i32]]* %5, i64 0, i64 %32, i64 3
  %75 = load i32, i32* %74, align 4, !tbaa !5
  %76 = add nsw i32 %73, %75
  %77 = getelementptr inbounds [11 x [11 x i32]], [11 x [11 x i32]]* %3, i64 0, i64 %31, i64 2
  store i32 %76, i32* %77, align 4, !tbaa !5
  %78 = shl nsw i32 %68, 1
  %79 = add nsw i32 %78, %75
  %80 = add nsw i32 %79, %59
  %81 = add nsw i32 %80, %50
  %82 = add nsw i32 %81, %71
  %83 = getelementptr inbounds [11 x [11 x i32]], [11 x [11 x i32]]* %5, i64 0, i64 %31, i64 4
  %84 = load i32, i32* %83, align 4, !tbaa !5
  %85 = add nsw i32 %82, %84
  %86 = getelementptr inbounds [11 x [11 x i32]], [11 x [11 x i32]]* %5, i64 0, i64 %33, i64 4
  %87 = load i32, i32* %86, align 4, !tbaa !5
  %88 = add nsw i32 %85, %87
  %89 = add nsw i32 %88, %53
  %90 = getelementptr inbounds [11 x [11 x i32]], [11 x [11 x i32]]* %5, i64 0, i64 %32, i64 4
  %91 = load i32, i32* %90, align 4, !tbaa !5
  %92 = add nsw i32 %89, %91
  %93 = getelementptr inbounds [11 x [11 x i32]], [11 x [11 x i32]]* %3, i64 0, i64 %31, i64 3
  store i32 %92, i32* %93, align 4, !tbaa !5
  %94 = shl nsw i32 %84, 1
  %95 = add nsw i32 %94, %91
  %96 = add nsw i32 %95, %75
  %97 = add nsw i32 %96, %68
  %98 = add nsw i32 %97, %87
  %99 = getelementptr inbounds [11 x [11 x i32]], [11 x [11 x i32]]* %5, i64 0, i64 %31, i64 5
  %100 = add nsw i32 %98, %30
  %101 = getelementptr inbounds [11 x [11 x i32]], [11 x [11 x i32]]* %5, i64 0, i64 %33, i64 5
  %102 = load i32, i32* %101, align 4, !tbaa !5
  %103 = add nsw i32 %100, %102
  %104 = add nsw i32 %103, %71
  %105 = add nsw i32 %104, %27
  %106 = getelementptr inbounds [11 x [11 x i32]], [11 x [11 x i32]]* %3, i64 0, i64 %31, i64 4
  store i32 %105, i32* %106, align 4, !tbaa !5
  %107 = shl nsw i32 %30, 1
  %108 = add nsw i32 %107, %27
  %109 = add nsw i32 %108, %91
  %110 = add nsw i32 %109, %84
  %111 = add nsw i32 %110, %102
  %112 = getelementptr inbounds [11 x [11 x i32]], [11 x [11 x i32]]* %5, i64 0, i64 %31, i64 6
  %113 = add nsw i32 %111, %29
  %114 = getelementptr inbounds [11 x [11 x i32]], [11 x [11 x i32]]* %5, i64 0, i64 %33, i64 6
  %115 = load i32, i32* %114, align 4, !tbaa !5
  %116 = add nsw i32 %113, %115
  %117 = add nsw i32 %116, %87
  %118 = getelementptr inbounds [11 x [11 x i32]], [11 x [11 x i32]]* %5, i64 0, i64 %32, i64 6
  %119 = add nsw i32 %117, %28
  %120 = getelementptr inbounds [11 x [11 x i32]], [11 x [11 x i32]]* %3, i64 0, i64 %31, i64 5
  store i32 %119, i32* %120, align 4, !tbaa !5
  %121 = load i32, i32* %112, align 4, !tbaa !5
  %122 = shl nsw i32 %121, 1
  %123 = load i32, i32* %118, align 4, !tbaa !5
  %124 = add nsw i32 %122, %123
  %125 = add nsw i32 %124, %27
  %126 = load i32, i32* %99, align 4, !tbaa !5
  %127 = add nsw i32 %125, %126
  %128 = add nsw i32 %127, %115
  %129 = getelementptr inbounds [11 x [11 x i32]], [11 x [11 x i32]]* %5, i64 0, i64 %31, i64 7
  %130 = load i32, i32* %129, align 4, !tbaa !5
  %131 = add nsw i32 %128, %130
  %132 = getelementptr inbounds [11 x [11 x i32]], [11 x [11 x i32]]* %5, i64 0, i64 %33, i64 7
  %133 = load i32, i32* %132, align 4, !tbaa !5
  %134 = add nsw i32 %131, %133
  %135 = add nsw i32 %134, %102
  %136 = getelementptr inbounds [11 x [11 x i32]], [11 x [11 x i32]]* %5, i64 0, i64 %32, i64 7
  %137 = load i32, i32* %136, align 4, !tbaa !5
  %138 = add nsw i32 %135, %137
  %139 = getelementptr inbounds [11 x [11 x i32]], [11 x [11 x i32]]* %3, i64 0, i64 %31, i64 6
  store i32 %138, i32* %139, align 4, !tbaa !5
  %140 = shl nsw i32 %130, 1
  %141 = add nsw i32 %140, %137
  %142 = add nsw i32 %141, %123
  %143 = add nsw i32 %142, %121
  %144 = add nsw i32 %143, %133
  %145 = getelementptr inbounds [11 x [11 x i32]], [11 x [11 x i32]]* %5, i64 0, i64 %31, i64 8
  %146 = load i32, i32* %145, align 4, !tbaa !5
  %147 = add nsw i32 %144, %146
  %148 = getelementptr inbounds [11 x [11 x i32]], [11 x [11 x i32]]* %5, i64 0, i64 %33, i64 8
  %149 = load i32, i32* %148, align 4, !tbaa !5
  %150 = add nsw i32 %147, %149
  %151 = add nsw i32 %150, %115
  %152 = getelementptr inbounds [11 x [11 x i32]], [11 x [11 x i32]]* %5, i64 0, i64 %32, i64 8
  %153 = load i32, i32* %152, align 4, !tbaa !5
  %154 = add nsw i32 %151, %153
  %155 = getelementptr inbounds [11 x [11 x i32]], [11 x [11 x i32]]* %3, i64 0, i64 %31, i64 7
  store i32 %154, i32* %155, align 4, !tbaa !5
  %156 = shl nsw i32 %146, 1
  %157 = add nsw i32 %156, %153
  %158 = add nsw i32 %157, %137
  %159 = add nsw i32 %158, %130
  %160 = add nsw i32 %159, %149
  %161 = getelementptr inbounds [11 x [11 x i32]], [11 x [11 x i32]]* %5, i64 0, i64 %31, i64 9
  %162 = load i32, i32* %161, align 4, !tbaa !5
  %163 = add nsw i32 %160, %162
  %164 = getelementptr inbounds [11 x [11 x i32]], [11 x [11 x i32]]* %5, i64 0, i64 %33, i64 9
  %165 = load i32, i32* %164, align 4, !tbaa !5
  %166 = add nsw i32 %163, %165
  %167 = add nsw i32 %166, %133
  %168 = getelementptr inbounds [11 x [11 x i32]], [11 x [11 x i32]]* %5, i64 0, i64 %32, i64 9
  %169 = load i32, i32* %168, align 4, !tbaa !5
  %170 = add nsw i32 %167, %169
  %171 = getelementptr inbounds [11 x [11 x i32]], [11 x [11 x i32]]* %3, i64 0, i64 %31, i64 8
  store i32 %170, i32* %171, align 4, !tbaa !5
  %172 = shl nsw i32 %162, 1
  %173 = add nsw i32 %172, %169
  %174 = add nsw i32 %173, %153
  %175 = add nsw i32 %174, %146
  %176 = add nsw i32 %175, %165
  %177 = getelementptr inbounds [11 x [11 x i32]], [11 x [11 x i32]]* %5, i64 0, i64 %31, i64 10
  %178 = load i32, i32* %177, align 4, !tbaa !5
  %179 = add nsw i32 %176, %178
  %180 = getelementptr inbounds [11 x [11 x i32]], [11 x [11 x i32]]* %5, i64 0, i64 %33, i64 10
  %181 = load i32, i32* %180, align 4, !tbaa !5
  %182 = add nsw i32 %179, %181
  %183 = add nsw i32 %182, %149
  %184 = getelementptr inbounds [11 x [11 x i32]], [11 x [11 x i32]]* %5, i64 0, i64 %32, i64 10
  %185 = load i32, i32* %184, align 4, !tbaa !5
  %186 = add nsw i32 %183, %185
  %187 = getelementptr inbounds [11 x [11 x i32]], [11 x [11 x i32]]* %3, i64 0, i64 %31, i64 9
  store i32 %186, i32* %187, align 4, !tbaa !5
  %188 = icmp eq i64 %33, 10
  br i1 %188, label %189, label %26, !llvm.loop !9

189:                                              ; preds = %26
  %190 = add nuw nsw i32 %21, 1
  %191 = icmp eq i32 %190, %12
  br i1 %191, label %14, label %20, !llvm.loop !11

192:                                              ; preds = %193
  call void @llvm.lifetime.end.p0i8(i64 484, i8* nonnull %6) #5
  call void @llvm.lifetime.end.p0i8(i64 484, i8* nonnull %4) #5
  call void @llvm.lifetime.end.p0i8(i64 4, i8* nonnull %8) #5
  call void @llvm.lifetime.end.p0i8(i64 4, i8* nonnull %7) #5
  ret i32 0

193:                                              ; preds = %14, %193
  %194 = phi i64 [ %222, %193 ], [ 1, %14 ]
  %195 = getelementptr inbounds [11 x [11 x i32]], [11 x [11 x i32]]* %3, i64 0, i64 %194, i64 9
  %196 = getelementptr inbounds [11 x [11 x i32]], [11 x [11 x i32]]* %3, i64 0, i64 %194, i64 1
  %197 = load i32, i32* %196, align 4, !tbaa !5
  %198 = call i32 (i8*, ...) @printf(i8* nonnull dereferenceable(1) getelementptr inbounds ([4 x i8], [4 x i8]* @.str.1, i64 0, i64 0), i32 %197)
  %199 = getelementptr inbounds [11 x [11 x i32]], [11 x [11 x i32]]* %3, i64 0, i64 %194, i64 2
  %200 = load i32, i32* %199, align 4, !tbaa !5
  %201 = call i32 (i8*, ...) @printf(i8* nonnull dereferenceable(1) getelementptr inbounds ([4 x i8], [4 x i8]* @.str.1, i64 0, i64 0), i32 %200)
  %202 = getelementptr inbounds [11 x [11 x i32]], [11 x [11 x i32]]* %3, i64 0, i64 %194, i64 3
  %203 = load i32, i32* %202, align 4, !tbaa !5
  %204 = call i32 (i8*, ...) @printf(i8* nonnull dereferenceable(1) getelementptr inbounds ([4 x i8], [4 x i8]* @.str.1, i64 0, i64 0), i32 %203)
  %205 = getelementptr inbounds [11 x [11 x i32]], [11 x [11 x i32]]* %3, i64 0, i64 %194, i64 4
  %206 = load i32, i32* %205, align 4, !tbaa !5
  %207 = call i32 (i8*, ...) @printf(i8* nonnull dereferenceable(1) getelementptr inbounds ([4 x i8], [4 x i8]* @.str.1, i64 0, i64 0), i32 %206)
  %208 = getelementptr inbounds [11 x [11 x i32]], [11 x [11 x i32]]* %3, i64 0, i64 %194, i64 5
  %209 = load i32, i32* %208, align 4, !tbaa !5
  %210 = call i32 (i8*, ...) @printf(i8* nonnull dereferenceable(1) getelementptr inbounds ([4 x i8], [4 x i8]* @.str.1, i64 0, i64 0), i32 %209)
  %211 = getelementptr inbounds [11 x [11 x i32]], [11 x [11 x i32]]* %3, i64 0, i64 %194, i64 6
  %212 = load i32, i32* %211, align 4, !tbaa !5
  %213 = call i32 (i8*, ...) @printf(i8* nonnull dereferenceable(1) getelementptr inbounds ([4 x i8], [4 x i8]* @.str.1, i64 0, i64 0), i32 %212)
  %214 = getelementptr inbounds [11 x [11 x i32]], [11 x [11 x i32]]* %3, i64 0, i64 %194, i64 7
  %215 = load i32, i32* %214, align 4, !tbaa !5
  %216 = call i32 (i8*, ...) @printf(i8* nonnull dereferenceable(1) getelementptr inbounds ([4 x i8], [4 x i8]* @.str.1, i64 0, i64 0), i32 %215)
  %217 = getelementptr inbounds [11 x [11 x i32]], [11 x [11 x i32]]* %3, i64 0, i64 %194, i64 8
  %218 = load i32, i32* %217, align 4, !tbaa !5
  %219 = call i32 (i8*, ...) @printf(i8* nonnull dereferenceable(1) getelementptr inbounds ([4 x i8], [4 x i8]* @.str.1, i64 0, i64 0), i32 %218)
  %220 = load i32, i32* %195, align 4, !tbaa !5
  %221 = call i32 (i8*, ...) @printf(i8* nonnull dereferenceable(1) getelementptr inbounds ([4 x i8], [4 x i8]* @.str.2, i64 0, i64 0), i32 %220)
  %222 = add nuw nsw i64 %194, 1
  %223 = icmp eq i64 %222, 10
  br i1 %223, label %192, label %193, !llvm.loop !12
}